; Function Attrs: mustprogress nofree norecurse nosync nounwind willreturn memory(read, inaccessiblemem: none) uwtable
define ptr @llama_sampler_chain_get(ptr noundef readonly captures(none) %0, i32 noundef %1) local_unnamed_addr #8 {
  %3 = icmp slt i32 %1, 0
  br i1 %3, label %19, label %4

4:                                                ; preds = %2
  %5 = getelementptr inbounds nuw i8, ptr %0, i64 8
  %6 = load ptr, ptr %5, align 8, !tbaa !9
  %7 = zext nneg i32 %1 to i64
  %8 = getelementptr inbounds nuw i8, ptr %6, i64 8
  %9 = getelementptr inbounds nuw i8, ptr %6, i64 16
  %10 = load ptr, ptr %9, align 8, !tbaa !34
  %11 = load ptr, ptr %8, align 8, !tbaa !41
  %12 = ptrtoint ptr %10 to i64
  %13 = ptrtoint ptr %11 to i64
  %14 = sub i64 %12, %13
  %15 = ashr exact i64 %14, 3
  %.not = icmp ugt i64 %15, %7
  br i1 %.not, label %16, label %19

16:                                               ; preds = %4
  %17 = getelementptr inbounds nuw ptr, ptr %11, i64 %7
  %18 = load ptr, ptr %17, align 8, !tbaa !39
  br label %19

19:                                               ; preds = %2, %4, %16
  %.0 = phi ptr [ %18, %16 ], [ null, %4 ], [ null, %2 ]
  ret ptr %.0
}